target datalayout = "e-m:e-p270:32:32-p271:32:32-p272:64:64-i64:64-i128:128-f80:128-n8:16:32:64-S128"
target triple = "x86_64-pc-linux-gnu"

%struct.H5E_msg_t = type { i8, ptr, i32, ptr }

@H5E_ERROR_g = global i64 -1, align 8
@H5E_CANTALLOC_g = global i64 -1, align 8
@H5E_init_g = external global i8, align 1
@H5_libterm_g = external global i8, align 1
@.str.1 = private unnamed_addr constant [100 x i8] c"generated/home/dtcxzyw/WorkSpace/Projects/compilers/llvm-opt-benchmark/bench/hdf5/hdf5/src/H5Eint.c\00", align 1
@.str.8 = private unnamed_addr constant [25 x i8] c"memory allocation failed\00", align 1
@__func__.H5E__create_msg = private unnamed_addr constant [16 x i8] c"H5E__create_msg\00", align 1
@H5_H5E_msg_t_reg_free_list = internal global { i8, [3 x i8], i32, i32, [4 x i8], ptr, i64, ptr } { i8 0, [3 x i8] zeroinitializer, i32 0, i32 0, [4 x i8] zeroinitializer, ptr @.str.386, i64 32, ptr null }, align 8

; Function Attrs: nounwind uwtable
define internal void @H5E__free_msg(ptr noundef %0) #0 {
  %2 = alloca ptr, align 8
  store ptr %0, ptr %2, align 8, !tbaa !39
  %3 = load i8, ptr @H5E_init_g, align 1, !tbaa !7, !range !9, !noundef !10
  %4 = trunc i8 %3 to i1
  br i1 %4, label %9, label %5

5:                                                ; preds = %1
  %6 = load i8, ptr @H5_libterm_g, align 1, !tbaa !7, !range !9, !noundef !10
  %7 = trunc i8 %6 to i1
  %8 = xor i1 %7, true
  br label %9

9:                                                ; preds = %5, %1
  %10 = phi i1 [ true, %1 ], [ %8, %5 ]
  %11 = xor i1 %10, true
  %12 = xor i1 %11, true
  %13 = zext i1 %12 to i32
  %14 = sext i32 %13 to i64
  %15 = call i64 @llvm.expect.i64(i64 %14, i64 1)
  %16 = icmp ne i64 %15, 0
  br i1 %16, label %17, label %26

17:                                               ; preds = %9
  %18 = load ptr, ptr %2, align 8, !tbaa !39
  %19 = getelementptr inbounds nuw %struct.H5E_msg_t, ptr %18, i32 0, i32 1
  %20 = load ptr, ptr %19, align 8, !tbaa !45
  %21 = call ptr @H5MM_xfree_const(ptr noundef %20)
  %22 = load ptr, ptr %2, align 8, !tbaa !39
  %23 = getelementptr inbounds nuw %struct.H5E_msg_t, ptr %22, i32 0, i32 1
  store ptr %21, ptr %23, align 8, !tbaa !45
  %24 = load ptr, ptr %2, align 8, !tbaa !39
  %25 = call ptr @H5FL_reg_free(ptr noundef @H5_H5E_msg_t_reg_free_list, ptr noundef %24)
  store ptr %25, ptr %2, align 8, !tbaa !39
  br label %26

26:                                               ; preds = %17, %9
  ret void
}

; Function Attrs: nounwind uwtable
define ptr @H5E__create_msg(ptr noundef %0, i32 noundef %1, ptr noundef %2) #0 {
  %4 = alloca ptr, align 8
  %5 = alloca i32, align 4
  %6 = alloca ptr, align 8
  %7 = alloca ptr, align 8
  %8 = alloca ptr, align 8
  %9 = alloca i8, align 1
  store ptr %0, ptr %4, align 8, !tbaa !32
  store i32 %1, ptr %5, align 4, !tbaa !3
  store ptr %2, ptr %6, align 8, !tbaa !13
  call void @llvm.lifetime.start.p0(i64 8, ptr %7) #9
  store ptr null, ptr %7, align 8, !tbaa !39
  call void @llvm.lifetime.start.p0(i64 8, ptr %8) #9
  store ptr null, ptr %8, align 8, !tbaa !39
  call void @llvm.lifetime.start.p0(i64 1, ptr %9) #9
  store i8 0, ptr %9, align 1, !tbaa !7
  %10 = load i8, ptr @H5E_init_g, align 1, !tbaa !7, !range !9, !noundef !10
  %11 = trunc i8 %10 to i1
  br i1 %11, label %16, label %12

12:                                               ; preds = %3
  %13 = load i8, ptr @H5_libterm_g, align 1, !tbaa !7, !range !9, !noundef !10
  %14 = trunc i8 %13 to i1
  %15 = xor i1 %14, true
  br label %16

16:                                               ; preds = %12, %3
  %17 = phi i1 [ true, %3 ], [ %15, %12 ]
  %18 = xor i1 %17, true
  %19 = xor i1 %18, true
  %20 = zext i1 %19 to i32
  %21 = sext i32 %20 to i64
  %22 = call i64 @llvm.expect.i64(i64 %21, i64 1)
  %23 = icmp ne i64 %22, 0
  br i1 %23, label %24, label %91

24:                                               ; preds = %16
  %25 = call noalias ptr @H5FL_reg_calloc(ptr noundef @H5_H5E_msg_t_reg_free_list)
  store ptr %25, ptr %7, align 8, !tbaa !39
  %26 = icmp eq ptr null, %25
  br i1 %26, label %27, label %46

27:                                               ; preds = %24
  br label %28

28:                                               ; preds = %27
  br label %29

29:                                               ; preds = %28
  br label %30

30:                                               ; preds = %29
  %31 = load i64, ptr @H5E_ERROR_g, align 8, !tbaa !11
  %32 = load i64, ptr @H5E_CANTALLOC_g, align 8, !tbaa !11
  %33 = call i32 (ptr, ptr, i32, i64, i64, ptr, ...) @H5E_printf_stack(ptr noundef @.str.1, ptr noundef @__func__.H5E__create_msg, i32 noundef 687, i64 noundef %31, i64 noundef %32, ptr noundef @.str.8)
  br label %34

34:                                               ; preds = %30
  br label %35

35:                                               ; preds = %34
  store i8 1, ptr %9, align 1, !tbaa !7
  %36 = load i8, ptr %9, align 1, !tbaa !7, !range !9, !noundef !10
  %37 = trunc i8 %36 to i1
  %38 = zext i1 %37 to i8
  store i8 %38, ptr %9, align 1, !tbaa !7
  br label %39

39:                                               ; preds = %35
  br label %40

40:                                               ; preds = %39
  br label %41

41:                                               ; preds = %40
  store ptr null, ptr %8, align 8, !tbaa !39
  br label %81

42:                                               ; No predecessors!
  br label %43

43:                                               ; preds = %42
  br label %44

44:                                               ; preds = %43
  br label %45

45:                                               ; preds = %44
  br label %46

46:                                               ; preds = %45, %24
  %47 = load ptr, ptr %7, align 8, !tbaa !39
  %48 = getelementptr inbounds nuw %struct.H5E_msg_t, ptr %47, i32 0, i32 0
  store i8 1, ptr %48, align 8, !tbaa !41
  %49 = load ptr, ptr %4, align 8, !tbaa !32
  %50 = load ptr, ptr %7, align 8, !tbaa !39
  %51 = getelementptr inbounds nuw %struct.H5E_msg_t, ptr %50, i32 0, i32 3
  store ptr %49, ptr %51, align 8, !tbaa !43
  %52 = load i32, ptr %5, align 4, !tbaa !3
  %53 = load ptr, ptr %7, align 8, !tbaa !39
  %54 = getelementptr inbounds nuw %struct.H5E_msg_t, ptr %53, i32 0, i32 2
  store i32 %52, ptr %54, align 8, !tbaa !44
  %55 = load ptr, ptr %6, align 8, !tbaa !13
  %56 = call noalias ptr @strdup(ptr noundef %55) #9
  %57 = load ptr, ptr %7, align 8, !tbaa !39
  %58 = getelementptr inbounds nuw %struct.H5E_msg_t, ptr %57, i32 0, i32 1
  store ptr %56, ptr %58, align 8, !tbaa !45
  %59 = icmp eq ptr null, %56
  br i1 %59, label %60, label %79

60:                                               ; preds = %46
  br label %61

61:                                               ; preds = %60
  br label %62

62:                                               ; preds = %61
  br label %63

63:                                               ; preds = %62
  %64 = load i64, ptr @H5E_ERROR_g, align 8, !tbaa !11
  %65 = load i64, ptr @H5E_CANTALLOC_g, align 8, !tbaa !11
  %66 = call i32 (ptr, ptr, i32, i64, i64, ptr, ...) @H5E_printf_stack(ptr noundef @.str.1, ptr noundef @__func__.H5E__create_msg, i32 noundef 694, i64 noundef %64, i64 noundef %65, ptr noundef @.str.8)
  br label %67

67:                                               ; preds = %63
  br label %68

68:                                               ; preds = %67
  store i8 1, ptr %9, align 1, !tbaa !7
  %69 = load i8, ptr %9, align 1, !tbaa !7, !range !9, !noundef !10
  %70 = trunc i8 %69 to i1
  %71 = zext i1 %70 to i8
  store i8 %71, ptr %9, align 1, !tbaa !7
  br label %72

72:                                               ; preds = %68
  br label %73

73:                                               ; preds = %72
  br label %74

74:                                               ; preds = %73
  store ptr null, ptr %8, align 8, !tbaa !39
  br label %81

75:                                               ; No predecessors!
  br label %76

76:                                               ; preds = %75
  br label %77

77:                                               ; preds = %76
  br label %78

78:                                               ; preds = %77
  br label %79

79:                                               ; preds = %78, %46
  %80 = load ptr, ptr %7, align 8, !tbaa !39
  store ptr %80, ptr %8, align 8, !tbaa !39
  br label %81

81:                                               ; preds = %79, %74, %41
  %82 = load ptr, ptr %8, align 8, !tbaa !39
  %83 = icmp ne ptr %82, null
  br i1 %83, label %90, label %84

84:                                               ; preds = %81
  %85 = load ptr, ptr %7, align 8, !tbaa !39
  %86 = icmp ne ptr %85, null
  br i1 %86, label %87, label %89

87:                                               ; preds = %84
  %88 = load ptr, ptr %7, align 8, !tbaa !39
  call void @H5E__free_msg(ptr noundef %88)
  br label %89

89:                                               ; preds = %87, %84
  br label %90

90:                                               ; preds = %89, %81
  br label %91

91:                                               ; preds = %90, %16
  %92 = load ptr, ptr %8, align 8, !tbaa !39
  call void @llvm.lifetime.end.p0(i64 1, ptr %9) #9
  call void @llvm.lifetime.end.p0(i64 8, ptr %8) #9
  call void @llvm.lifetime.end.p0(i64 8, ptr %7) #9
  ret ptr %92
}