; Function Attrs: nounwind uwtable
define ptr @H5E__create_msg(ptr noundef %0, i32 noundef %1, ptr noundef readonly captures(none) %2) local_unnamed_addr #0 {
  %4 = load i8, ptr @H5E_init_g, align 1, !tbaa !3, !range !7, !noundef !8
  %5 = trunc nuw i8 %4 to i1
  %6 = load i8, ptr @H5_libterm_g, align 1, !range !7
  %7 = trunc nuw i8 %6 to i1
  %8 = xor i1 %7, true
  %9 = select i1 %5, i1 true, i1 %8
  br i1 %9, label %10, label %H5E__free_msg.exit, !prof !9

10:                                               ; preds = %3
  %11 = tail call noalias ptr @H5FL_reg_calloc(ptr noundef nonnull @H5_H5E_msg_t_reg_free_list) #16
  %12 = icmp eq ptr %11, null
  br i1 %12, label %13, label %17

13:                                               ; preds = %10
  %14 = load i64, ptr @H5E_ERROR_g, align 8, !tbaa !10
  %15 = load i64, ptr @H5E_CANTALLOC_g, align 8, !tbaa !10
  %16 = tail call i32 (ptr, ptr, i32, i64, i64, ptr, ...) @H5E_printf_stack(ptr noundef nonnull @.str.1, ptr noundef nonnull @__func__.H5E__create_msg, i32 noundef 687, i64 noundef %14, i64 noundef %15, ptr noundef nonnull @.str.8)
  br label %H5E__free_msg.exit

17:                                               ; preds = %10
  store i8 1, ptr %11, align 8, !tbaa !43
  %18 = getelementptr inbounds nuw i8, ptr %11, i64 24
  store ptr %0, ptr %18, align 8, !tbaa !46
  %19 = getelementptr inbounds nuw i8, ptr %11, i64 16
  store i32 %1, ptr %19, align 8, !tbaa !47
  %20 = tail call noalias ptr @strdup(ptr noundef %2) #16
  %21 = getelementptr inbounds nuw i8, ptr %11, i64 8
  store ptr %20, ptr %21, align 8, !tbaa !48
  %22 = icmp eq ptr %20, null
  br i1 %22, label %23, label %H5E__free_msg.exit

23:                                               ; preds = %17
  %24 = load i64, ptr @H5E_ERROR_g, align 8, !tbaa !10
  %25 = load i64, ptr @H5E_CANTALLOC_g, align 8, !tbaa !10
  %26 = tail call i32 (ptr, ptr, i32, i64, i64, ptr, ...) @H5E_printf_stack(ptr noundef nonnull @.str.1, ptr noundef nonnull @__func__.H5E__create_msg, i32 noundef 694, i64 noundef %24, i64 noundef %25, ptr noundef nonnull @.str.8)
  %27 = load i8, ptr @H5E_init_g, align 1, !tbaa !3, !range !7, !noundef !8
  %28 = trunc nuw i8 %27 to i1
  %29 = load i8, ptr @H5_libterm_g, align 1, !range !7
  %30 = trunc nuw i8 %29 to i1
  %31 = xor i1 %30, true
  %32 = select i1 %28, i1 true, i1 %31
  br i1 %32, label %33, label %H5E__free_msg.exit, !prof !9

33:                                               ; preds = %23
  %34 = tail call ptr @H5MM_xfree_const(ptr noundef null) #16
  store ptr %34, ptr %21, align 8, !tbaa !48
  %35 = tail call ptr @H5FL_reg_free(ptr noundef nonnull @H5_H5E_msg_t_reg_free_list, ptr noundef nonnull %11) #16
  br label %H5E__free_msg.exit

H5E__free_msg.exit:                               ; preds = %13, %17, %33, %23, %3
  %.0 = phi ptr [ null, %3 ], [ null, %23 ], [ null, %33 ], [ %11, %17 ], [ null, %13 ]
  ret ptr %.0
}